target datalayout = "e-m:e-p270:32:32-p271:32:32-p272:64:64-i64:64-i128:128-f80:128-n8:16:32:64-S128"
target triple = "x86_64-pc-linux-gnu"

%struct.AVCodecContext = type { ptr, i32, i32, ptr, i32, i32, ptr, ptr, ptr, i64, i32, i32, ptr, i32, %struct.AVRational, %struct.AVRational, %struct.AVRational, i32, i32, i32, i32, i32, %struct.AVRational, i32, i32, i32, i32, i32, i32, i32, i32, i32, i32, i32, ptr, ptr, i32, float, float, float, float, float, float, float, float, float, i32, i32, i32, i32, i32, i32, i32, i32, i32, i32, i32, i32, ptr, ptr, ptr, i32, i32, i32, i32, i32, i32, i32, i32, i32, i32, %struct.AVChannelLayout, i32, i32, i32, i32, i32, i32, i32, i32, ptr, i32, i32, i32, float, float, i32, i32, i32, i32, i32, ptr, i64, i64, float, float, i32, i32, ptr, ptr, i32, i32, i32, i32, i32, ptr, ptr, ptr, ptr, i32, i32, [8 x i64], i32, i32, i32, i32, i32, i32, i32, ptr, ptr, i32, i32, i32, i32, i32, i32, i32, i32, i32, i32, ptr, ptr, i32, i32, ptr, ptr, ptr, ptr, i32, i32, i64, i32, i32, i64, ptr, i64, ptr, i32, ptr, i32 }
%struct.AVRational = type { i32, i32 }
%struct.AVChannelLayout = type { i32, i32, %union.anon.0, ptr }
%union.anon.0 = type { i64 }
%struct.AVFrame = type { [8 x ptr], [8 x i32], ptr, i32, i32, i32, i32, i32, %struct.AVRational, i64, i64, %struct.AVRational, i32, ptr, i32, i32, [8 x ptr], ptr, i32, ptr, i32, i32, i32, i32, i32, i32, i32, i64, ptr, i32, ptr, ptr, i64, i64, i64, i64, ptr, %struct.AVChannelLayout, i64 }
%struct.AVPacket = type { ptr, i64, i64, ptr, i32, i32, i32, ptr, i32, i64, i64, ptr, ptr, %struct.AVRational }

@.str.2 = private unnamed_addr constant [5 x i8] c"yuv2\00", align 1
@.str.3 = private unnamed_addr constant [5 x i8] c"b64a\00", align 1

; Function Attrs: alwaysinline nounwind willreturn memory(none) uwtable
define internal i32 @av_bswap32(i32 noundef %0) #5 {
  %2 = alloca i32, align 4
  store i32 %0, ptr %2, align 4, !tbaa !46
  %3 = load i32, ptr %2, align 4, !tbaa !46
  %4 = shl i32 %3, 8
  %5 = and i32 %4, 65280
  %6 = load i32, ptr %2, align 4, !tbaa !46
  %7 = lshr i32 %6, 8
  %8 = and i32 %7, 255
  %9 = or i32 %5, %8
  %10 = shl i32 %9, 16
  %11 = load i32, ptr %2, align 4, !tbaa !46
  %12 = lshr i32 %11, 16
  %13 = shl i32 %12, 8
  %14 = and i32 %13, 65280
  %15 = load i32, ptr %2, align 4, !tbaa !46
  %16 = lshr i32 %15, 16
  %17 = lshr i32 %16, 8
  %18 = and i32 %17, 255
  %19 = or i32 %14, %18
  %20 = or i32 %10, %19
  ret i32 %20
}

; Function Attrs: inlinehint nounwind willreturn memory(none) uwtable
define internal i64 @av_bswap64(i64 noundef %0) #4 {
  %2 = alloca i64, align 8
  store i64 %0, ptr %2, align 8, !tbaa !53
  %3 = load i64, ptr %2, align 8, !tbaa !53
  %4 = trunc i64 %3 to i32
  %5 = call i32 @av_bswap32(i32 noundef %4) #7
  %6 = zext i32 %5 to i64
  %7 = shl i64 %6, 32
  %8 = load i64, ptr %2, align 8, !tbaa !53
  %9 = lshr i64 %8, 32
  %10 = trunc i64 %9 to i32
  %11 = call i32 @av_bswap32(i32 noundef %10) #7
  %12 = zext i32 %11 to i64
  %13 = or i64 %7, %12
  ret i64 %13
}

; Function Attrs: nounwind uwtable
define internal i32 @raw_encode(ptr noundef %0, ptr noundef %1, ptr noundef %2, ptr noundef %3) #1 {
  %5 = alloca i32, align 4
  %6 = alloca ptr, align 8
  %7 = alloca ptr, align 8
  %8 = alloca ptr, align 8
  %9 = alloca ptr, align 8
  %10 = alloca i32, align 4
  %11 = alloca i32, align 4
  %12 = alloca i32, align 4
  %13 = alloca i64, align 8
  %14 = alloca i32, align 4
  store ptr %0, ptr %6, align 8, !tbaa !4
  store ptr %1, ptr %7, align 8, !tbaa !34
  store ptr %2, ptr %8, align 8, !tbaa !36
  store ptr %3, ptr %9, align 8, !tbaa !38
  call void @llvm.lifetime.start.p0(i64 4, ptr %10) #6
  %15 = load ptr, ptr %8, align 8, !tbaa !36
  %16 = getelementptr inbounds nuw %struct.AVFrame, ptr %15, i32 0, i32 6
  %17 = load i32, ptr %16, align 4, !tbaa !39
  %18 = load ptr, ptr %8, align 8, !tbaa !36
  %19 = getelementptr inbounds nuw %struct.AVFrame, ptr %18, i32 0, i32 3
  %20 = load i32, ptr %19, align 8, !tbaa !44
  %21 = load ptr, ptr %8, align 8, !tbaa !36
  %22 = getelementptr inbounds nuw %struct.AVFrame, ptr %21, i32 0, i32 4
  %23 = load i32, ptr %22, align 4, !tbaa !45
  %24 = call i32 @av_image_get_buffer_size(i32 noundef %17, i32 noundef %20, i32 noundef %23, i32 noundef 1)
  store i32 %24, ptr %10, align 4, !tbaa !46
  %25 = load i32, ptr %10, align 4, !tbaa !46
  %26 = icmp slt i32 %25, 0
  br i1 %26, label %27, label %29

27:                                               ; preds = %4
  %28 = load i32, ptr %10, align 4, !tbaa !46
  store i32 %28, ptr %5, align 4
  store i32 1, ptr %11, align 4
  br label %160

29:                                               ; preds = %4
  %30 = load ptr, ptr %6, align 8, !tbaa !4
  %31 = load ptr, ptr %7, align 8, !tbaa !34
  %32 = load i32, ptr %10, align 4, !tbaa !46
  %33 = sext i32 %32 to i64
  %34 = call i32 @ff_get_encode_buffer(ptr noundef %30, ptr noundef %31, i64 noundef %33, i32 noundef 0)
  store i32 %34, ptr %10, align 4, !tbaa !46
  %35 = icmp slt i32 %34, 0
  br i1 %35, label %36, label %38

36:                                               ; preds = %29
  %37 = load i32, ptr %10, align 4, !tbaa !46
  store i32 %37, ptr %5, align 4
  store i32 1, ptr %11, align 4
  br label %160

38:                                               ; preds = %29
  %39 = load ptr, ptr %7, align 8, !tbaa !34
  %40 = getelementptr inbounds nuw %struct.AVPacket, ptr %39, i32 0, i32 3
  %41 = load ptr, ptr %40, align 8, !tbaa !47
  %42 = load ptr, ptr %7, align 8, !tbaa !34
  %43 = getelementptr inbounds nuw %struct.AVPacket, ptr %42, i32 0, i32 4
  %44 = load i32, ptr %43, align 8, !tbaa !49
  %45 = load ptr, ptr %8, align 8, !tbaa !36
  %46 = getelementptr inbounds nuw %struct.AVFrame, ptr %45, i32 0, i32 0
  %47 = getelementptr inbounds [8 x ptr], ptr %46, i64 0, i64 0
  %48 = load ptr, ptr %8, align 8, !tbaa !36
  %49 = getelementptr inbounds nuw %struct.AVFrame, ptr %48, i32 0, i32 1
  %50 = getelementptr inbounds [8 x i32], ptr %49, i64 0, i64 0
  %51 = load ptr, ptr %8, align 8, !tbaa !36
  %52 = getelementptr inbounds nuw %struct.AVFrame, ptr %51, i32 0, i32 6
  %53 = load i32, ptr %52, align 4, !tbaa !39
  %54 = load ptr, ptr %8, align 8, !tbaa !36
  %55 = getelementptr inbounds nuw %struct.AVFrame, ptr %54, i32 0, i32 3
  %56 = load i32, ptr %55, align 8, !tbaa !44
  %57 = load ptr, ptr %8, align 8, !tbaa !36
  %58 = getelementptr inbounds nuw %struct.AVFrame, ptr %57, i32 0, i32 4
  %59 = load i32, ptr %58, align 4, !tbaa !45
  %60 = call i32 @av_image_copy_to_buffer(ptr noundef %41, i32 noundef %44, ptr noundef %47, ptr noundef %50, i32 noundef %53, i32 noundef %56, i32 noundef %59, i32 noundef 1)
  store i32 %60, ptr %10, align 4, !tbaa !46
  %61 = icmp slt i32 %60, 0
  br i1 %61, label %62, label %64

62:                                               ; preds = %38
  %63 = load i32, ptr %10, align 4, !tbaa !46
  store i32 %63, ptr %5, align 4
  store i32 1, ptr %11, align 4
  br label %160

64:                                               ; preds = %38
  %65 = load ptr, ptr %6, align 8, !tbaa !4
  %66 = getelementptr inbounds nuw %struct.AVCodecContext, ptr %65, i32 0, i32 5
  %67 = load i32, ptr %66, align 4, !tbaa !32
  %68 = load i32, ptr @.str.2, align 1, !tbaa !50
  %69 = icmp eq i32 %67, %68
  br i1 %69, label %70, label %105

70:                                               ; preds = %64
  %71 = load i32, ptr %10, align 4, !tbaa !46
  %72 = icmp sgt i32 %71, 0
  br i1 %72, label %73, label %105

73:                                               ; preds = %70
  %74 = load ptr, ptr %8, align 8, !tbaa !36
  %75 = getelementptr inbounds nuw %struct.AVFrame, ptr %74, i32 0, i32 6
  %76 = load i32, ptr %75, align 4, !tbaa !39
  %77 = icmp eq i32 %76, 1
  br i1 %77, label %78, label %105

78:                                               ; preds = %73
  call void @llvm.lifetime.start.p0(i64 4, ptr %12) #6
  store i32 1, ptr %12, align 4, !tbaa !46
  br label %79

79:                                               ; preds = %101, %78
  %80 = load i32, ptr %12, align 4, !tbaa !46
  %81 = load ptr, ptr %8, align 8, !tbaa !36
  %82 = getelementptr inbounds nuw %struct.AVFrame, ptr %81, i32 0, i32 4
  %83 = load i32, ptr %82, align 4, !tbaa !45
  %84 = load ptr, ptr %8, align 8, !tbaa !36
  %85 = getelementptr inbounds nuw %struct.AVFrame, ptr %84, i32 0, i32 3
  %86 = load i32, ptr %85, align 8, !tbaa !44
  %87 = mul nsw i32 %83, %86
  %88 = mul nsw i32 %87, 2
  %89 = icmp slt i32 %80, %88
  br i1 %89, label %90, label %104

90:                                               ; preds = %79
  %91 = load ptr, ptr %7, align 8, !tbaa !34
  %92 = getelementptr inbounds nuw %struct.AVPacket, ptr %91, i32 0, i32 3
  %93 = load ptr, ptr %92, align 8, !tbaa !47
  %94 = load i32, ptr %12, align 4, !tbaa !46
  %95 = sext i32 %94 to i64
  %96 = getelementptr inbounds i8, ptr %93, i64 %95
  %97 = load i8, ptr %96, align 1, !tbaa !50
  %98 = zext i8 %97 to i32
  %99 = xor i32 %98, 128
  %100 = trunc i32 %99 to i8
  store i8 %100, ptr %96, align 1, !tbaa !50
  br label %101

101:                                              ; preds = %90
  %102 = load i32, ptr %12, align 4, !tbaa !46
  %103 = add nsw i32 %102, 2
  store i32 %103, ptr %12, align 4, !tbaa !46
  br label %79, !llvm.loop !51

104:                                              ; preds = %79
  call void @llvm.lifetime.end.p0(i64 4, ptr %12) #6
  br label %158

105:                                              ; preds = %73, %70, %64
  %106 = load ptr, ptr %6, align 8, !tbaa !4
  %107 = getelementptr inbounds nuw %struct.AVCodecContext, ptr %106, i32 0, i32 5
  %108 = load i32, ptr %107, align 4, !tbaa !32
  %109 = load i32, ptr @.str.3, align 1, !tbaa !50
  %110 = icmp eq i32 %108, %109
  br i1 %110, label %111, label %157

111:                                              ; preds = %105
  %112 = load i32, ptr %10, align 4, !tbaa !46
  %113 = icmp sgt i32 %112, 0
  br i1 %113, label %114, label %157

114:                                              ; preds = %111
  %115 = load ptr, ptr %8, align 8, !tbaa !36
  %116 = getelementptr inbounds nuw %struct.AVFrame, ptr %115, i32 0, i32 6
  %117 = load i32, ptr %116, align 4, !tbaa !39
  %118 = icmp eq i32 %117, 104
  br i1 %118, label %119, label %157

119:                                              ; preds = %114
  call void @llvm.lifetime.start.p0(i64 8, ptr %13) #6
  call void @llvm.lifetime.start.p0(i64 4, ptr %14) #6
  store i32 0, ptr %14, align 4, !tbaa !46
  br label %120

120:                                              ; preds = %153, %119
  %121 = load i32, ptr %14, align 4, !tbaa !46
  %122 = load ptr, ptr %8, align 8, !tbaa !36
  %123 = getelementptr inbounds nuw %struct.AVFrame, ptr %122, i32 0, i32 4
  %124 = load i32, ptr %123, align 4, !tbaa !45
  %125 = load ptr, ptr %8, align 8, !tbaa !36
  %126 = getelementptr inbounds nuw %struct.AVFrame, ptr %125, i32 0, i32 3
  %127 = load i32, ptr %126, align 8, !tbaa !44
  %128 = mul nsw i32 %124, %127
  %129 = icmp slt i32 %121, %128
  br i1 %129, label %130, label %156

130:                                              ; preds = %120
  %131 = load ptr, ptr %7, align 8, !tbaa !34
  %132 = getelementptr inbounds nuw %struct.AVPacket, ptr %131, i32 0, i32 3
  %133 = load ptr, ptr %132, align 8, !tbaa !47
  %134 = load i32, ptr %14, align 4, !tbaa !46
  %135 = mul nsw i32 8, %134
  %136 = sext i32 %135 to i64
  %137 = getelementptr inbounds i8, ptr %133, i64 %136
  %138 = load i64, ptr %137, align 1, !tbaa !50
  %139 = call i64 @av_bswap64(i64 noundef %138) #7
  store i64 %139, ptr %13, align 8, !tbaa !53
  %140 = load i64, ptr %13, align 8, !tbaa !53
  %141 = shl i64 %140, 48
  %142 = load i64, ptr %13, align 8, !tbaa !53
  %143 = lshr i64 %142, 16
  %144 = or i64 %141, %143
  %145 = call i64 @av_bswap64(i64 noundef %144) #7
  %146 = load ptr, ptr %7, align 8, !tbaa !34
  %147 = getelementptr inbounds nuw %struct.AVPacket, ptr %146, i32 0, i32 3
  %148 = load ptr, ptr %147, align 8, !tbaa !47
  %149 = load i32, ptr %14, align 4, !tbaa !46
  %150 = mul nsw i32 8, %149
  %151 = sext i32 %150 to i64
  %152 = getelementptr inbounds i8, ptr %148, i64 %151
  store i64 %145, ptr %152, align 1, !tbaa !50
  br label %153

153:                                              ; preds = %130
  %154 = load i32, ptr %14, align 4, !tbaa !46
  %155 = add nsw i32 %154, 1
  store i32 %155, ptr %14, align 4, !tbaa !46
  br label %120, !llvm.loop !54

156:                                              ; preds = %120
  call void @llvm.lifetime.end.p0(i64 4, ptr %14) #6
  call void @llvm.lifetime.end.p0(i64 8, ptr %13) #6
  br label %157

157:                                              ; preds = %156, %114, %111, %105
  br label %158

158:                                              ; preds = %157, %104
  %159 = load ptr, ptr %9, align 8, !tbaa !38
  store i32 1, ptr %159, align 4, !tbaa !46
  store i32 0, ptr %5, align 4
  store i32 1, ptr %11, align 4
  br label %160

160:                                              ; preds = %158, %62, %36, %27
  call void @llvm.lifetime.end.p0(i64 4, ptr %10) #6
  %161 = load i32, ptr %5, align 4
  ret i32 %161
}