; Function Attrs: nounwind uwtable
define internal range(i32 -2147483648, 1) i32 @raw_encode(ptr noundef %0, ptr noundef %1, ptr noundef %2, ptr noundef writeonly captures(none) %3) #1 {
  %5 = getelementptr inbounds nuw i8, ptr %2, i64 116
  %6 = load i32, ptr %5, align 4, !tbaa !30
  %7 = getelementptr inbounds nuw i8, ptr %2, i64 104
  %8 = load i32, ptr %7, align 8, !tbaa !35
  %9 = getelementptr inbounds nuw i8, ptr %2, i64 108
  %10 = load i32, ptr %9, align 4, !tbaa !36
  %11 = tail call i32 @av_image_get_buffer_size(i32 noundef %6, i32 noundef %8, i32 noundef %10, i32 noundef 1) #4
  %12 = icmp slt i32 %11, 0
  br i1 %12, label %72, label %13

13:                                               ; preds = %4
  %14 = zext nneg i32 %11 to i64
  %15 = tail call i32 @ff_get_encode_buffer(ptr noundef %0, ptr noundef %1, i64 noundef %14, i32 noundef 0) #4
  %16 = icmp slt i32 %15, 0
  br i1 %16, label %72, label %17

17:                                               ; preds = %13
  %18 = getelementptr inbounds nuw i8, ptr %1, i64 24
  %19 = load ptr, ptr %18, align 8, !tbaa !37
  %20 = getelementptr inbounds nuw i8, ptr %1, i64 32
  %21 = load i32, ptr %20, align 8, !tbaa !39
  %22 = getelementptr inbounds nuw i8, ptr %2, i64 64
  %23 = load i32, ptr %5, align 4, !tbaa !30
  %24 = load i32, ptr %7, align 8, !tbaa !35
  %25 = load i32, ptr %9, align 4, !tbaa !36
  %26 = tail call i32 @av_image_copy_to_buffer(ptr noundef %19, i32 noundef %21, ptr noundef nonnull %2, ptr noundef nonnull %22, i32 noundef %23, i32 noundef %24, i32 noundef %25, i32 noundef 1) #4
  %27 = icmp slt i32 %26, 0
  br i1 %27, label %72, label %28

28:                                               ; preds = %17
  %29 = getelementptr inbounds nuw i8, ptr %0, i64 28
  %30 = load i32, ptr %29, align 4, !tbaa !28
  %31 = icmp eq i32 %30, 846624121
  %32 = icmp ne i32 %26, 0
  %or.cond = and i1 %32, %31
  br i1 %or.cond, label %33, label %51

33:                                               ; preds = %28
  %34 = load i32, ptr %5, align 4, !tbaa !30
  %35 = icmp eq i32 %34, 1
  br i1 %35, label %.preheader, label %.thread

.preheader:                                       ; preds = %33
  %36 = load i32, ptr %9, align 4, !tbaa !36
  %37 = load i32, ptr %7, align 8, !tbaa !35
  %38 = shl i32 %36, 1
  %39 = mul i32 %38, %37
  %40 = icmp sgt i32 %39, 1
  br i1 %40, label %.lr.ph54, label %.thread

.lr.ph54:                                         ; preds = %.preheader, %.lr.ph54
  %indvars.iv57 = phi i64 [ %indvars.iv.next58, %.lr.ph54 ], [ 1, %.preheader ]
  %41 = load ptr, ptr %18, align 8, !tbaa !37
  %42 = getelementptr inbounds nuw i8, ptr %41, i64 %indvars.iv57
  %43 = load i8, ptr %42, align 1, !tbaa !40
  %44 = xor i8 %43, -128
  store i8 %44, ptr %42, align 1, !tbaa !40
  %indvars.iv.next58 = add nuw nsw i64 %indvars.iv57, 2
  %45 = load i32, ptr %9, align 4, !tbaa !36
  %46 = load i32, ptr %7, align 8, !tbaa !35
  %47 = shl i32 %45, 1
  %48 = mul i32 %47, %46
  %49 = sext i32 %48 to i64
  %50 = icmp slt i64 %indvars.iv.next58, %49
  br i1 %50, label %.lr.ph54, label %.thread, !llvm.loop !41

51:                                               ; preds = %28
  %52 = icmp eq i32 %30, 1630811746
  %or.cond3 = and i1 %32, %52
  br i1 %or.cond3, label %53, label %.thread

53:                                               ; preds = %51
  %54 = load i32, ptr %5, align 4, !tbaa !30
  %55 = icmp eq i32 %54, 104
  br i1 %55, label %.preheader50, label %.thread

.preheader50:                                     ; preds = %53
  %56 = load i32, ptr %9, align 4, !tbaa !36
  %57 = load i32, ptr %7, align 8, !tbaa !35
  %58 = mul nsw i32 %57, %56
  %59 = icmp sgt i32 %58, 0
  br i1 %59, label %.lr.ph, label %.thread

.lr.ph:                                           ; preds = %.preheader50, %.lr.ph
  %indvars.iv = phi i64 [ %indvars.iv.next, %.lr.ph ], [ 0, %.preheader50 ]
  %60 = load ptr, ptr %18, align 8, !tbaa !37
  %61 = shl nsw i64 %indvars.iv, 3
  %62 = getelementptr inbounds nuw i8, ptr %60, i64 %61
  %63 = load i64, ptr %62, align 1, !tbaa !40
  %64 = tail call noundef i64 @llvm.bswap.i64(i64 %63)
  %65 = tail call i64 @llvm.fshl.i64(i64 %64, i64 %64, i64 48)
  %66 = tail call noundef i64 @llvm.bswap.i64(i64 %65)
  store i64 %66, ptr %62, align 1, !tbaa !40
  %indvars.iv.next = add nuw nsw i64 %indvars.iv, 1
  %67 = load i32, ptr %9, align 4, !tbaa !36
  %68 = load i32, ptr %7, align 8, !tbaa !35
  %69 = mul nsw i32 %68, %67
  %70 = sext i32 %69 to i64
  %71 = icmp slt i64 %indvars.iv.next, %70
  br i1 %71, label %.lr.ph, label %.thread, !llvm.loop !43

.thread:                                          ; preds = %.lr.ph, %.lr.ph54, %.preheader50, %.preheader, %33, %51, %53
  store i32 1, ptr %3, align 4, !tbaa !44
  br label %72

72:                                               ; preds = %17, %13, %4, %.thread
  %.043 = phi i32 [ 0, %.thread ], [ %11, %4 ], [ %15, %13 ], [ %26, %17 ]
  ret i32 %.043
}